Certificate:
    Data:
        Version: 3 (0x2)
        Serial Number: 2 (0x2)
    Signature Algorithm: sha256WithRSAEncryption
        Issuer: C=CN, ST=JS, L=ZJ, O=UJS, OU=JSJ, CN=CA
        Validity
            Not Before: Jun 21 06:25:04 2018 GMT
            Not After : Jun 21 06:25:04 2019 GMT
        Subject: C=CN, ST=JS, O=UJS, OU=JSJ, CN=3150604028B
        Subject Public Key Info:
            Public Key Algorithm: rsaEncryption
                Public-Key: (1024 bit)
                Modulus:
                    00:de:8c:6e:07:a4:3c:ee:00:e2:ad:b3:a3:a5:4c:
                    aa:bd:b7:72:9f:8b:ea:03:d1:6b:02:cb:f7:42:41:
                    0e:91:8d:3c:d4:40:78:6f:1a:36:0b:37:85:5d:7f:
                    03:62:f7:d5:0a:a3:94:a1:07:96:66:47:e7:8e:d4:
                    94:15:6b:1b:3e:f3:44:fc:05:df:cf:be:29:6a:56:
                    38:4f:13:9e:13:cc:f3:f1:4a:af:86:b9:fe:e2:f5:
                    66:4a:07:b0:ab:72:0d:26:c5:b1:2b:4b:7c:61:a5:
                    2d:b9:71:4e:df:8e:8f:a0:bd:59:c8:3e:02:ee:8d:
                    ce:89:a7:42:60:b6:5a:1f:31
                Exponent: 65537 (0x10001)
        X509v3 extensions:
            X509v3 Basic Constraints: 
                CA:FALSE
            Netscape Comment: 
                OpenSSL Generated Certificate
            X509v3 Subject Key Identifier: 
                B3:E6:3C:49:00:1A:E7:A9:6E:84:65:E4:26:90:C4:DA:97:04:4D:D6
            X509v3 Authority Key Identifier: 
                keyid:5F:8E:62:49:ED:40:25:99:42:E2:51:02:C5:AC:F9:E4:D5:67:DB:BD

    Signature Algorithm: sha256WithRSAEncryption
         42:44:79:45:19:07:fd:7d:9b:f4:88:6f:6a:0f:39:16:24:04:
         d1:45:98:17:65:81:f0:73:99:15:40:41:20:8b:d6:3d:7d:43:
         51:65:ff:0f:48:6f:1a:95:d8:b5:e8:34:a4:c4:5b:64:8c:63:
         6c:0a:40:7c:ad:83:7f:c8:67:c0:5b:72:20:55:cd:6d:18:c7:
         69:ae:90:5a:27:a8:9c:ff:d6:ec:00:3a:0f:5c:9c:69:a9:2d:
         e8:4b:ad:8e:e8:12:7f:fb:e4:d4:cf:f7:63:9e:ae:61:d1:52:
         a2:22:9f:30:50:bd:86:9f:39:97:bd:a7:8a:48:91:1b:f2:9f:
         dc:6d
-----BEGIN CERTIFICATE-----
MIICjTCCAfagAwIBAgIBAjANBgkqhkiG9w0BAQsFADBQMQswCQYDVQQGEwJDTjEL
MAkGA1UECAwCSlMxCzAJBgNVBAcMAlpKMQwwCgYDVQQKDANVSlMxDDAKBgNVBAsM
A0pTSjELMAkGA1UEAwwCQ0EwHhcNMTgwNjIxMDYyNTA0WhcNMTkwNjIxMDYyNTA0
WjBMMQswCQYDVQQGEwJDTjELMAkGA1UECAwCSlMxDDAKBgNVBAoMA1VKUzEMMAoG
A1UECwwDSlNKMRQwEgYDVQQDDAszMTUwNjA0MDI4QjCBnzANBgkqhkiG9w0BAQEF
AAOBjQAwgYkCgYEA3oxuB6Q87gDirbOjpUyqvbdyn4vqA9FrAsv3QkEOkY081EB4
bxo2CzeFXX8DYvfVCqOUoQeWZkfnjtSUFWsbPvNE/AXfz74palY4TxOeE8zz8Uqv
hrn+4vVmSgewq3INJsWxK0t8YaUtuXFO346PoL1ZyD4C7o3OiadCYLZaHzECAwEA
AaN7MHkwCQYDVR0TBAIwADAsBglghkgBhvhCAQ0EHxYdT3BlblNTTCBHZW5lcmF0
ZWQgQ2VydGlmaWNhdGUwHQYDVR0OBBYEFLPmPEkAGuepboRl5CaQxNqXBE3WMB8G
A1UdIwQYMBaAFF+OYkntQCWZQuJRAsWs+eTVZ9u9MA0GCSqGSIb3DQEBCwUAA4GB
AEJEeUUZB/19m/SIb2oPORYkBNFFmBdlgfBzmRVAQSCL1j19Q1Fl/w9IbxqV2LXo
NKTEW2SMY2wKQHytg3/IZ8BbciBVzW0Yx2mukFonqJz/1uwAOg9cnGmpLehLrY7o
En/75NTP92OermHRUqIinzBQvYafOZe9p4pIkRvyn9xt
-----END CERTIFICATE-----
