Certificate:
    Data:
        Version: 3 (0x2)
        Serial Number: 1 (0x1)
    Signature Algorithm: sha256WithRSAEncryption
        Issuer: C=CN, ST=JS, L=ZJ, O=UJS, OU=JSJ, CN=CA
        Validity
            Not Before: Jun 21 06:24:13 2018 GMT
            Not After : Jun 21 06:24:13 2019 GMT
        Subject: C=CN, ST=JS, O=UJS, OU=JSJ, CN=3150604028A
        Subject Public Key Info:
            Public Key Algorithm: rsaEncryption
                Public-Key: (1024 bit)
                Modulus:
                    00:a8:47:5c:58:6f:23:97:16:e8:88:89:34:c7:a3:
                    9e:c2:67:f9:c9:81:77:3c:3d:eb:eb:e3:a4:37:af:
                    8e:f0:08:f5:2a:18:56:a1:2f:90:27:e8:98:5e:b8:
                    d2:3c:80:1e:fd:dc:06:42:fc:68:f7:ba:66:77:a6:
                    17:a8:3d:81:cb:d3:3c:31:a7:72:29:cd:b1:71:34:
                    c0:ef:7d:11:d2:7c:64:ca:dd:52:32:16:d3:23:cb:
                    06:28:f1:36:59:a6:28:92:7c:2e:9b:29:50:b9:fc:
                    04:f0:2d:ba:49:43:61:2a:74:d2:08:5f:af:5e:51:
                    4e:90:86:15:c2:58:67:4b:af
                Exponent: 65537 (0x10001)
        X509v3 extensions:
            X509v3 Basic Constraints: 
                CA:FALSE
            Netscape Comment: 
                OpenSSL Generated Certificate
            X509v3 Subject Key Identifier: 
                71:25:55:25:1F:FA:54:E1:73:88:D5:84:F6:E5:18:AC:B2:3C:B8:FD
            X509v3 Authority Key Identifier: 
                keyid:5F:8E:62:49:ED:40:25:99:42:E2:51:02:C5:AC:F9:E4:D5:67:DB:BD

    Signature Algorithm: sha256WithRSAEncryption
         1d:cf:7a:c0:d7:ab:a9:3f:55:c1:5d:94:e5:fc:ce:c6:80:45:
         eb:b5:19:b8:ec:4c:36:f1:ec:e9:78:dc:d8:b5:d4:30:89:e0:
         19:b0:58:f0:e2:46:a2:dd:a6:ed:50:77:5c:c7:36:84:0c:3a:
         bf:b3:c0:e3:05:08:19:6a:96:b2:a8:ef:fb:89:7e:94:d0:ea:
         42:a1:fd:5f:bd:9b:98:24:d8:71:00:56:3e:3f:84:e4:51:12:
         91:ed:be:3f:45:5e:e9:fe:b7:03:f4:5b:0d:2e:3e:97:27:8e:
         c2:71:b0:36:59:14:2d:a4:62:01:d8:a4:8a:b6:93:95:4a:3d:
         0f:da
-----BEGIN CERTIFICATE-----
MIICjTCCAfagAwIBAgIBATANBgkqhkiG9w0BAQsFADBQMQswCQYDVQQGEwJDTjEL
MAkGA1UECAwCSlMxCzAJBgNVBAcMAlpKMQwwCgYDVQQKDANVSlMxDDAKBgNVBAsM
A0pTSjELMAkGA1UEAwwCQ0EwHhcNMTgwNjIxMDYyNDEzWhcNMTkwNjIxMDYyNDEz
WjBMMQswCQYDVQQGEwJDTjELMAkGA1UECAwCSlMxDDAKBgNVBAoMA1VKUzEMMAoG
A1UECwwDSlNKMRQwEgYDVQQDDAszMTUwNjA0MDI4QTCBnzANBgkqhkiG9w0BAQEF
AAOBjQAwgYkCgYEAqEdcWG8jlxboiIk0x6Oewmf5yYF3PD3r6+OkN6+O8Aj1KhhW
oS+QJ+iYXrjSPIAe/dwGQvxo97pmd6YXqD2By9M8MadyKc2xcTTA730R0nxkyt1S
MhbTI8sGKPE2WaYoknwumylQufwE8C26SUNhKnTSCF+vXlFOkIYVwlhnS68CAwEA
AaN7MHkwCQYDVR0TBAIwADAsBglghkgBhvhCAQ0EHxYdT3BlblNTTCBHZW5lcmF0
ZWQgQ2VydGlmaWNhdGUwHQYDVR0OBBYEFHElVSUf+lThc4jVhPblGKyyPLj9MB8G
A1UdIwQYMBaAFF+OYkntQCWZQuJRAsWs+eTVZ9u9MA0GCSqGSIb3DQEBCwUAA4GB
AB3PesDXq6k/VcFdlOX8zsaAReu1GbjsTDbx7Ol43Ni11DCJ4BmwWPDiRqLdpu1Q
d1zHNoQMOr+zwOMFCBlqlrKo7/uJfpTQ6kKh/V+9m5gk2HEAVj4/hORREpHtvj9F
Xun+twP0Ww0uPpcnjsJxsDZZFC2kYgHYpIq2k5VKPQ/a
-----END CERTIFICATE-----
